target datalayout = "e-m:e-p270:32:32-p271:32:32-p272:64:64-i64:64-i128:128-f80:128-n8:16:32:64-S128"
target triple = "x86_64-pc-linux-gnu"

@.str.14 = private unnamed_addr constant [33 x i8] c"../openssl/test/quicfaultstest.c\00", align 1
@cert = internal global ptr null, align 8
@privkey = internal global ptr null, align 8
@.str.23 = private unnamed_addr constant [13 x i8] c"Hello World!\00", align 1
@.str.24 = private unnamed_addr constant [5 x i8] c"cctx\00", align 1
@.str.26 = private unnamed_addr constant [43 x i8] c"qtest_create_quic_connection(qtserv, cssl)\00", align 1
@.str.30 = private unnamed_addr constant [4 x i8] c"msg\00", align 1
@.str.31 = private unnamed_addr constant [4 x i8] c"buf\00", align 1
@.str.34 = private unnamed_addr constant [46 x i8] c"ossl_quic_tserver_stream_new(qtserv, 0, &sid)\00", align 1
@.str.35 = private unnamed_addr constant [4 x i8] c"sid\00", align 1
@.str.36 = private unnamed_addr constant [2 x i8] c"1\00", align 1
@.str.38 = private unnamed_addr constant [13 x i8] c"byteswritten\00", align 1
@.str.39 = private unnamed_addr constant [24 x i8] c"SSL_handle_events(cssl)\00", align 1
@.str.49 = private unnamed_addr constant [111 x i8] c"qtest_create_quic_objects(NULL, cctx, NULL, cert, privkey, QTEST_FLAG_FAKE_TIME, &qtserv, &cssl, &fault, NULL)\00", align 1
@.str.50 = private unnamed_addr constant [73 x i8] c"qtest_fault_set_packet_cipher_listener(fault, on_packet_cipher_cb, NULL)\00", align 1
@.str.51 = private unnamed_addr constant [63 x i8] c"qtest_fault_set_datagram_listener(fault, on_datagram_cb, NULL)\00", align 1
@docorrupt = internal global i32 0, align 4
@.str.52 = private unnamed_addr constant [77 x i8] c"ossl_quic_tserver_write(qtserv, sid, (unsigned char *)msg, 5, &byteswritten)\00", align 1
@.str.53 = private unnamed_addr constant [2 x i8] c"5\00", align 1
@.str.54 = private unnamed_addr constant [90 x i8] c"ossl_quic_tserver_write(qtserv, sid, (unsigned char *)msg + 5, msglen - 5, &byteswritten)\00", align 1
@.str.55 = private unnamed_addr constant [11 x i8] c"msglen - 5\00", align 1
@.str.56 = private unnamed_addr constant [48 x i8] c"SSL_read_ex(cssl, buf, sizeof(buf), &bytesread)\00", align 1
@.str.57 = private unnamed_addr constant [10 x i8] c"docorrupt\00", align 1

; Function Attrs: nounwind uwtable
define internal i32 @test_corrupted_data(i32 noundef %0) #0 {
  %2 = alloca i32, align 4
  %3 = alloca ptr, align 8
  %4 = alloca i32, align 4
  %5 = alloca ptr, align 8
  %6 = alloca ptr, align 8
  %7 = alloca ptr, align 8
  %8 = alloca ptr, align 8
  %9 = alloca i64, align 8
  %10 = alloca [80 x i8], align 16
  %11 = alloca i64, align 8
  %12 = alloca i64, align 8
  %13 = alloca i64, align 8
  store i32 %0, ptr %2, align 4, !tbaa !9
  call void @llvm.lifetime.start.p0(i64 8, ptr %3) #6
  store ptr null, ptr %3, align 8, !tbaa !19
  call void @llvm.lifetime.start.p0(i64 4, ptr %4) #6
  store i32 0, ptr %4, align 4, !tbaa !9
  call void @llvm.lifetime.start.p0(i64 8, ptr %5) #6
  %14 = call ptr @OSSL_QUIC_client_method()
  %15 = call ptr @SSL_CTX_new(ptr noundef %14)
  store ptr %15, ptr %5, align 8, !tbaa !11
  call void @llvm.lifetime.start.p0(i64 8, ptr %6) #6
  store ptr null, ptr %6, align 8, !tbaa !13
  call void @llvm.lifetime.start.p0(i64 8, ptr %7) #6
  store ptr null, ptr %7, align 8, !tbaa !15
  call void @llvm.lifetime.start.p0(i64 8, ptr %8) #6
  store ptr @.str.23, ptr %8, align 8, !tbaa !4
  call void @llvm.lifetime.start.p0(i64 8, ptr %9) #6
  %16 = load ptr, ptr %8, align 8, !tbaa !4
  %17 = call i64 @strlen(ptr noundef %16) #7
  store i64 %17, ptr %9, align 8, !tbaa !17
  call void @llvm.lifetime.start.p0(i64 80, ptr %10) #6
  call void @llvm.lifetime.start.p0(i64 8, ptr %11) #6
  call void @llvm.lifetime.start.p0(i64 8, ptr %12) #6
  call void @llvm.lifetime.start.p0(i64 8, ptr %13) #6
  store i64 -1, ptr %13, align 8, !tbaa !17
  %18 = load ptr, ptr %5, align 8, !tbaa !11
  %19 = call i32 @test_ptr(ptr noundef @.str.14, i32 noundef 273, ptr noundef @.str.24, ptr noundef %18)
  %20 = icmp ne i32 %19, 0
  br i1 %20, label %22, label %21

21:                                               ; preds = %1
  br label %152

22:                                               ; preds = %1
  %23 = load ptr, ptr %5, align 8, !tbaa !11
  %24 = load ptr, ptr @cert, align 8, !tbaa !4
  %25 = load ptr, ptr @privkey, align 8, !tbaa !4
  %26 = call i32 @qtest_create_quic_objects(ptr noundef null, ptr noundef %23, ptr noundef null, ptr noundef %24, ptr noundef %25, i32 noundef 2, ptr noundef %6, ptr noundef %7, ptr noundef %3, ptr noundef null)
  %27 = icmp ne i32 %26, 0
  %28 = zext i1 %27 to i32
  %29 = call i32 @test_true(ptr noundef @.str.14, i32 noundef 278, ptr noundef @.str.49, i32 noundef %28)
  %30 = icmp ne i32 %29, 0
  br i1 %30, label %32, label %31

31:                                               ; preds = %22
  br label %152

32:                                               ; preds = %22
  %33 = load i32, ptr %2, align 4, !tbaa !9
  %34 = icmp eq i32 %33, 0
  br i1 %34, label %35, label %44

35:                                               ; preds = %32
  %36 = load ptr, ptr %3, align 8, !tbaa !19
  %37 = call i32 @qtest_fault_set_packet_cipher_listener(ptr noundef %36, ptr noundef @on_packet_cipher_cb, ptr noundef null)
  %38 = icmp ne i32 %37, 0
  %39 = zext i1 %38 to i32
  %40 = call i32 @test_true(ptr noundef @.str.14, i32 noundef 285, ptr noundef @.str.50, i32 noundef %39)
  %41 = icmp ne i32 %40, 0
  br i1 %41, label %43, label %42

42:                                               ; preds = %35
  br label %152

43:                                               ; preds = %35
  br label %53

44:                                               ; preds = %32
  %45 = load ptr, ptr %3, align 8, !tbaa !19
  %46 = call i32 @qtest_fault_set_datagram_listener(ptr noundef %45, ptr noundef @on_datagram_cb, ptr noundef null)
  %47 = icmp ne i32 %46, 0
  %48 = zext i1 %47 to i32
  %49 = call i32 @test_true(ptr noundef @.str.14, i32 noundef 291, ptr noundef @.str.51, i32 noundef %48)
  %50 = icmp ne i32 %49, 0
  br i1 %50, label %52, label %51

51:                                               ; preds = %44
  br label %152

52:                                               ; preds = %44
  br label %53

53:                                               ; preds = %52, %43
  %54 = load ptr, ptr %6, align 8, !tbaa !13
  %55 = load ptr, ptr %7, align 8, !tbaa !15
  %56 = call i32 @qtest_create_quic_connection(ptr noundef %54, ptr noundef %55)
  %57 = icmp ne i32 %56, 0
  %58 = zext i1 %57 to i32
  %59 = call i32 @test_true(ptr noundef @.str.14, i32 noundef 294, ptr noundef @.str.26, i32 noundef %58)
  %60 = icmp ne i32 %59, 0
  br i1 %60, label %62, label %61

61:                                               ; preds = %53
  br label %152

62:                                               ; preds = %53
  store i32 1, ptr @docorrupt, align 4, !tbaa !9
  %63 = load ptr, ptr %6, align 8, !tbaa !13
  %64 = call i32 @ossl_quic_tserver_stream_new(ptr noundef %63, i32 noundef 0, ptr noundef %13)
  %65 = icmp ne i32 %64, 0
  %66 = zext i1 %65 to i32
  %67 = call i32 @test_true(ptr noundef @.str.14, i32 noundef 300, ptr noundef @.str.34, i32 noundef %66)
  %68 = icmp ne i32 %67, 0
  br i1 %68, label %69, label %73

69:                                               ; preds = %62
  %70 = load i64, ptr %13, align 8, !tbaa !17
  %71 = call i32 @test_uint64_t_eq(ptr noundef @.str.14, i32 noundef 301, ptr noundef @.str.35, ptr noundef @.str.36, i64 noundef %70, i64 noundef 1)
  %72 = icmp ne i32 %71, 0
  br i1 %72, label %74, label %73

73:                                               ; preds = %69, %62
  br label %152

74:                                               ; preds = %69
  %75 = load ptr, ptr %6, align 8, !tbaa !13
  %76 = load i64, ptr %13, align 8, !tbaa !17
  %77 = load ptr, ptr %8, align 8, !tbaa !4
  %78 = call i32 @ossl_quic_tserver_write(ptr noundef %75, i64 noundef %76, ptr noundef %77, i64 noundef 5, ptr noundef %12)
  %79 = icmp ne i32 %78, 0
  %80 = zext i1 %79 to i32
  %81 = call i32 @test_true(ptr noundef @.str.14, i32 noundef 309, ptr noundef @.str.52, i32 noundef %80)
  %82 = icmp ne i32 %81, 0
  br i1 %82, label %84, label %83

83:                                               ; preds = %74
  br label %152

84:                                               ; preds = %74
  %85 = load i64, ptr %12, align 8, !tbaa !17
  %86 = call i32 @test_size_t_eq(ptr noundef @.str.14, i32 noundef 312, ptr noundef @.str.38, ptr noundef @.str.53, i64 noundef %85, i64 noundef 5)
  %87 = icmp ne i32 %86, 0
  br i1 %87, label %89, label %88

88:                                               ; preds = %84
  br label %152

89:                                               ; preds = %84
  call void @qtest_add_time(i64 noundef 100)
  %90 = load ptr, ptr %6, align 8, !tbaa !13
  %91 = load i64, ptr %13, align 8, !tbaa !17
  %92 = load ptr, ptr %8, align 8, !tbaa !4
  %93 = getelementptr inbounds i8, ptr %92, i64 5
  %94 = load i64, ptr %9, align 8, !tbaa !17
  %95 = sub i64 %94, 5
  %96 = call i32 @ossl_quic_tserver_write(ptr noundef %90, i64 noundef %91, ptr noundef %93, i64 noundef %95, ptr noundef %12)
  %97 = icmp ne i32 %96, 0
  %98 = zext i1 %97 to i32
  %99 = call i32 @test_true(ptr noundef @.str.14, i32 noundef 325, ptr noundef @.str.54, i32 noundef %98)
  %100 = icmp ne i32 %99, 0
  br i1 %100, label %102, label %101

101:                                              ; preds = %89
  br label %152

102:                                              ; preds = %89
  %103 = load i64, ptr %12, align 8, !tbaa !17
  %104 = load i64, ptr %9, align 8, !tbaa !17
  %105 = sub i64 %104, 5
  %106 = call i32 @test_size_t_eq(ptr noundef @.str.14, i32 noundef 328, ptr noundef @.str.38, ptr noundef @.str.55, i64 noundef %103, i64 noundef %105)
  %107 = icmp ne i32 %106, 0
  br i1 %107, label %109, label %108

108:                                              ; preds = %102
  br label %152

109:                                              ; preds = %102
  %110 = load ptr, ptr %7, align 8, !tbaa !15
  %111 = call i32 @SSL_handle_events(ptr noundef %110)
  %112 = icmp ne i32 %111, 0
  %113 = zext i1 %112 to i32
  %114 = call i32 @test_true(ptr noundef @.str.14, i32 noundef 336, ptr noundef @.str.39, i32 noundef %113)
  %115 = icmp ne i32 %114, 0
  br i1 %115, label %117, label %116

116:                                              ; preds = %109
  br label %152

117:                                              ; preds = %109
  %118 = load ptr, ptr %6, align 8, !tbaa !13
  %119 = call i32 @ossl_quic_tserver_tick(ptr noundef %118)
  %120 = load ptr, ptr %7, align 8, !tbaa !15
  %121 = call i32 @SSL_handle_events(ptr noundef %120)
  %122 = icmp ne i32 %121, 0
  %123 = zext i1 %122 to i32
  %124 = call i32 @test_true(ptr noundef @.str.14, i32 noundef 346, ptr noundef @.str.39, i32 noundef %123)
  %125 = icmp ne i32 %124, 0
  br i1 %125, label %127, label %126

126:                                              ; preds = %117
  br label %152

127:                                              ; preds = %117
  %128 = load ptr, ptr %7, align 8, !tbaa !15
  %129 = getelementptr inbounds [80 x i8], ptr %10, i64 0, i64 0
  %130 = call i32 @SSL_read_ex(ptr noundef %128, ptr noundef %129, i64 noundef 80, ptr noundef %11)
  %131 = icmp ne i32 %130, 0
  %132 = zext i1 %131 to i32
  %133 = call i32 @test_true(ptr noundef @.str.14, i32 noundef 350, ptr noundef @.str.56, i32 noundef %132)
  %134 = icmp ne i32 %133, 0
  br i1 %134, label %136, label %135

135:                                              ; preds = %127
  br label %152

136:                                              ; preds = %127
  %137 = load ptr, ptr %8, align 8, !tbaa !4
  %138 = load i64, ptr %9, align 8, !tbaa !17
  %139 = getelementptr inbounds [80 x i8], ptr %10, i64 0, i64 0
  %140 = load i64, ptr %11, align 8, !tbaa !17
  %141 = call i32 @test_mem_eq(ptr noundef @.str.14, i32 noundef 353, ptr noundef @.str.30, ptr noundef @.str.31, ptr noundef %137, i64 noundef %138, ptr noundef %139, i64 noundef %140)
  %142 = icmp ne i32 %141, 0
  br i1 %142, label %144, label %143

143:                                              ; preds = %136
  br label %152

144:                                              ; preds = %136
  %145 = load i32, ptr @docorrupt, align 4, !tbaa !9
  %146 = icmp ne i32 %145, 0
  %147 = zext i1 %146 to i32
  %148 = call i32 @test_false(ptr noundef @.str.14, i32 noundef 360, ptr noundef @.str.57, i32 noundef %147)
  %149 = icmp ne i32 %148, 0
  br i1 %149, label %151, label %150

150:                                              ; preds = %144
  br label %152

151:                                              ; preds = %144
  store i32 1, ptr %4, align 4, !tbaa !9
  br label %152

152:                                              ; preds = %151, %150, %143, %135, %126, %116, %108, %101, %88, %83, %73, %61, %51, %42, %31, %21
  %153 = load ptr, ptr %3, align 8, !tbaa !19
  call void @qtest_fault_free(ptr noundef %153)
  %154 = load ptr, ptr %7, align 8, !tbaa !15
  call void @SSL_free(ptr noundef %154)
  %155 = load ptr, ptr %6, align 8, !tbaa !13
  call void @ossl_quic_tserver_free(ptr noundef %155)
  %156 = load ptr, ptr %5, align 8, !tbaa !11
  call void @SSL_CTX_free(ptr noundef %156)
  %157 = load i32, ptr %4, align 4, !tbaa !9
  call void @llvm.lifetime.end.p0(i64 8, ptr %13) #6
  call void @llvm.lifetime.end.p0(i64 8, ptr %12) #6
  call void @llvm.lifetime.end.p0(i64 8, ptr %11) #6
  call void @llvm.lifetime.end.p0(i64 80, ptr %10) #6
  call void @llvm.lifetime.end.p0(i64 8, ptr %9) #6
  call void @llvm.lifetime.end.p0(i64 8, ptr %8) #6
  call void @llvm.lifetime.end.p0(i64 8, ptr %7) #6
  call void @llvm.lifetime.end.p0(i64 8, ptr %6) #6
  call void @llvm.lifetime.end.p0(i64 8, ptr %5) #6
  call void @llvm.lifetime.end.p0(i64 4, ptr %4) #6
  call void @llvm.lifetime.end.p0(i64 8, ptr %3) #6
  ret i32 %157
}