; Function Attrs: nounwind uwtable
define internal range(i32 0, 2) i32 @test_corrupted_data(i32 noundef %0) #1 {
  %2 = alloca ptr, align 8
  %3 = alloca ptr, align 8
  %4 = alloca ptr, align 8
  %5 = alloca [80 x i8], align 16
  %6 = alloca i64, align 8
  %7 = alloca i64, align 8
  %8 = alloca i64, align 8
  call void @llvm.lifetime.start.p0(i64 8, ptr nonnull %2) #4
  store ptr null, ptr %2, align 8, !tbaa !15
  %9 = tail call ptr @OSSL_QUIC_client_method() #4
  %10 = tail call ptr @SSL_CTX_new(ptr noundef %9) #4
  call void @llvm.lifetime.start.p0(i64 8, ptr nonnull %3) #4
  store ptr null, ptr %3, align 8, !tbaa !9
  call void @llvm.lifetime.start.p0(i64 8, ptr nonnull %4) #4
  store ptr null, ptr %4, align 8, !tbaa !11
  call void @llvm.lifetime.start.p0(i64 80, ptr nonnull %5) #4
  call void @llvm.lifetime.start.p0(i64 8, ptr nonnull %6) #4
  call void @llvm.lifetime.start.p0(i64 8, ptr nonnull %7) #4
  call void @llvm.lifetime.start.p0(i64 8, ptr nonnull %8) #4
  store i64 -1, ptr %8, align 8, !tbaa !13
  %11 = tail call i32 @test_ptr(ptr noundef nonnull @.str.14, i32 noundef 273, ptr noundef nonnull @.str.24, ptr noundef %10) #4
  %.not = icmp eq i32 %11, 0
  br i1 %.not, label %94, label %12

12:                                               ; preds = %1
  %13 = load ptr, ptr @cert, align 8, !tbaa !4
  %14 = load ptr, ptr @privkey, align 8, !tbaa !4
  %15 = call i32 @qtest_create_quic_objects(ptr noundef null, ptr noundef %10, ptr noundef null, ptr noundef %13, ptr noundef %14, i32 noundef 2, ptr noundef nonnull %3, ptr noundef nonnull %4, ptr noundef nonnull %2, ptr noundef null) #4
  %16 = icmp ne i32 %15, 0
  %17 = zext i1 %16 to i32
  %18 = call i32 @test_true(ptr noundef nonnull @.str.14, i32 noundef 278, ptr noundef nonnull @.str.49, i32 noundef %17) #4
  %.not11 = icmp eq i32 %18, 0
  br i1 %.not11, label %94, label %19

19:                                               ; preds = %12
  %20 = icmp eq i32 %0, 0
  %21 = load ptr, ptr %2, align 8, !tbaa !15
  br i1 %20, label %22, label %27

22:                                               ; preds = %19
  %23 = call i32 @qtest_fault_set_packet_cipher_listener(ptr noundef %21, ptr noundef nonnull @on_packet_cipher_cb, ptr noundef null) #4
  %24 = icmp ne i32 %23, 0
  %25 = zext i1 %24 to i32
  %26 = call i32 @test_true(ptr noundef nonnull @.str.14, i32 noundef 285, ptr noundef nonnull @.str.50, i32 noundef %25) #4
  %.not13 = icmp eq i32 %26, 0
  br i1 %.not13, label %94, label %32

27:                                               ; preds = %19
  %28 = call i32 @qtest_fault_set_datagram_listener(ptr noundef %21, ptr noundef nonnull @on_datagram_cb, ptr noundef null) #4
  %29 = icmp ne i32 %28, 0
  %30 = zext i1 %29 to i32
  %31 = call i32 @test_true(ptr noundef nonnull @.str.14, i32 noundef 291, ptr noundef nonnull @.str.51, i32 noundef %30) #4
  %.not12 = icmp eq i32 %31, 0
  br i1 %.not12, label %94, label %32

32:                                               ; preds = %27, %22
  %33 = load ptr, ptr %3, align 8, !tbaa !9
  %34 = load ptr, ptr %4, align 8, !tbaa !11
  %35 = call i32 @qtest_create_quic_connection(ptr noundef %33, ptr noundef %34) #4
  %36 = icmp ne i32 %35, 0
  %37 = zext i1 %36 to i32
  %38 = call i32 @test_true(ptr noundef nonnull @.str.14, i32 noundef 294, ptr noundef nonnull @.str.26, i32 noundef %37) #4
  %.not14 = icmp eq i32 %38, 0
  br i1 %.not14, label %94, label %39

39:                                               ; preds = %32
  store i1 true, ptr @docorrupt, align 4
  %40 = load ptr, ptr %3, align 8, !tbaa !9
  %41 = call i32 @ossl_quic_tserver_stream_new(ptr noundef %40, i32 noundef 0, ptr noundef nonnull %8) #4
  %42 = icmp ne i32 %41, 0
  %43 = zext i1 %42 to i32
  %44 = call i32 @test_true(ptr noundef nonnull @.str.14, i32 noundef 300, ptr noundef nonnull @.str.34, i32 noundef %43) #4
  %.not15 = icmp eq i32 %44, 0
  br i1 %.not15, label %94, label %45

45:                                               ; preds = %39
  %46 = load i64, ptr %8, align 8, !tbaa !13
  %47 = call i32 @test_uint64_t_eq(ptr noundef nonnull @.str.14, i32 noundef 301, ptr noundef nonnull @.str.35, ptr noundef nonnull @.str.36, i64 noundef %46, i64 noundef 1) #4
  %.not16 = icmp eq i32 %47, 0
  br i1 %.not16, label %94, label %48

48:                                               ; preds = %45
  %49 = load ptr, ptr %3, align 8, !tbaa !9
  %50 = load i64, ptr %8, align 8, !tbaa !13
  %51 = call i32 @ossl_quic_tserver_write(ptr noundef %49, i64 noundef %50, ptr noundef nonnull @.str.23, i64 noundef 5, ptr noundef nonnull %7) #4
  %52 = icmp ne i32 %51, 0
  %53 = zext i1 %52 to i32
  %54 = call i32 @test_true(ptr noundef nonnull @.str.14, i32 noundef 309, ptr noundef nonnull @.str.52, i32 noundef %53) #4
  %.not17 = icmp eq i32 %54, 0
  br i1 %.not17, label %94, label %55

55:                                               ; preds = %48
  %56 = load i64, ptr %7, align 8, !tbaa !13
  %57 = call i32 @test_size_t_eq(ptr noundef nonnull @.str.14, i32 noundef 312, ptr noundef nonnull @.str.38, ptr noundef nonnull @.str.53, i64 noundef %56, i64 noundef 5) #4
  %.not18 = icmp eq i32 %57, 0
  br i1 %.not18, label %94, label %58

58:                                               ; preds = %55
  call void @qtest_add_time(i64 noundef 100) #4
  %59 = load ptr, ptr %3, align 8, !tbaa !9
  %60 = load i64, ptr %8, align 8, !tbaa !13
  %61 = call i32 @ossl_quic_tserver_write(ptr noundef %59, i64 noundef %60, ptr noundef nonnull getelementptr inbounds nuw (i8, ptr @.str.23, i64 5), i64 noundef 7, ptr noundef nonnull %7) #4
  %62 = icmp ne i32 %61, 0
  %63 = zext i1 %62 to i32
  %64 = call i32 @test_true(ptr noundef nonnull @.str.14, i32 noundef 325, ptr noundef nonnull @.str.54, i32 noundef %63) #4
  %.not19 = icmp eq i32 %64, 0
  br i1 %.not19, label %94, label %65

65:                                               ; preds = %58
  %66 = load i64, ptr %7, align 8, !tbaa !13
  %67 = call i32 @test_size_t_eq(ptr noundef nonnull @.str.14, i32 noundef 328, ptr noundef nonnull @.str.38, ptr noundef nonnull @.str.55, i64 noundef %66, i64 noundef 7) #4
  %.not20 = icmp eq i32 %67, 0
  br i1 %.not20, label %94, label %68

68:                                               ; preds = %65
  %69 = load ptr, ptr %4, align 8, !tbaa !11
  %70 = call i32 @SSL_handle_events(ptr noundef %69) #4
  %71 = icmp ne i32 %70, 0
  %72 = zext i1 %71 to i32
  %73 = call i32 @test_true(ptr noundef nonnull @.str.14, i32 noundef 336, ptr noundef nonnull @.str.39, i32 noundef %72) #4
  %.not21 = icmp eq i32 %73, 0
  br i1 %.not21, label %94, label %74

74:                                               ; preds = %68
  %75 = load ptr, ptr %3, align 8, !tbaa !9
  %76 = call i32 @ossl_quic_tserver_tick(ptr noundef %75) #4
  %77 = load ptr, ptr %4, align 8, !tbaa !11
  %78 = call i32 @SSL_handle_events(ptr noundef %77) #4
  %79 = icmp ne i32 %78, 0
  %80 = zext i1 %79 to i32
  %81 = call i32 @test_true(ptr noundef nonnull @.str.14, i32 noundef 346, ptr noundef nonnull @.str.39, i32 noundef %80) #4
  %.not22 = icmp eq i32 %81, 0
  br i1 %.not22, label %94, label %82

82:                                               ; preds = %74
  %83 = load ptr, ptr %4, align 8, !tbaa !11
  %84 = call i32 @SSL_read_ex(ptr noundef %83, ptr noundef nonnull %5, i64 noundef 80, ptr noundef nonnull %6) #4
  %85 = icmp ne i32 %84, 0
  %86 = zext i1 %85 to i32
  %87 = call i32 @test_true(ptr noundef nonnull @.str.14, i32 noundef 350, ptr noundef nonnull @.str.56, i32 noundef %86) #4
  %.not23 = icmp eq i32 %87, 0
  br i1 %.not23, label %94, label %88

88:                                               ; preds = %82
  %89 = load i64, ptr %6, align 8, !tbaa !13
  %90 = call i32 @test_mem_eq(ptr noundef nonnull @.str.14, i32 noundef 353, ptr noundef nonnull @.str.30, ptr noundef nonnull @.str.31, ptr noundef nonnull @.str.23, i64 noundef 12, ptr noundef nonnull %5, i64 noundef %89) #4
  %.not24 = icmp eq i32 %90, 0
  br i1 %.not24, label %94, label %91

91:                                               ; preds = %88
  %.b = load i1, ptr @docorrupt, align 4
  %92 = zext i1 %.b to i32
  %93 = call i32 @test_false(ptr noundef nonnull @.str.14, i32 noundef 360, ptr noundef nonnull @.str.57, i32 noundef %92) #4
  %.not25 = icmp ne i32 %93, 0
  %spec.select = zext i1 %.not25 to i32
  br label %94

94:                                               ; preds = %91, %88, %82, %74, %68, %65, %58, %55, %48, %39, %45, %32, %27, %22, %12, %1
  %.0 = phi i32 [ 0, %88 ], [ 0, %82 ], [ 0, %74 ], [ 0, %68 ], [ 0, %65 ], [ 0, %58 ], [ 0, %55 ], [ 0, %48 ], [ 0, %45 ], [ 0, %39 ], [ 0, %32 ], [ 0, %22 ], [ 0, %27 ], [ 0, %12 ], [ 0, %1 ], [ %spec.select, %91 ]
  %95 = load ptr, ptr %2, align 8, !tbaa !15
  call void @qtest_fault_free(ptr noundef %95) #4
  %96 = load ptr, ptr %4, align 8, !tbaa !11
  call void @SSL_free(ptr noundef %96) #4
  %97 = load ptr, ptr %3, align 8, !tbaa !9
  call void @ossl_quic_tserver_free(ptr noundef %97) #4
  call void @SSL_CTX_free(ptr noundef %10) #4
  call void @llvm.lifetime.end.p0(i64 8, ptr nonnull %8) #4
  call void @llvm.lifetime.end.p0(i64 8, ptr nonnull %7) #4
  call void @llvm.lifetime.end.p0(i64 8, ptr nonnull %6) #4
  call void @llvm.lifetime.end.p0(i64 80, ptr nonnull %5) #4
  call void @llvm.lifetime.end.p0(i64 8, ptr nonnull %4) #4
  call void @llvm.lifetime.end.p0(i64 8, ptr nonnull %3) #4
  call void @llvm.lifetime.end.p0(i64 8, ptr nonnull %2) #4
  ret i32 %.0
}